; Function Attrs: nounwind uwtable
define ptr @zend_get_exception_base(ptr nocapture noundef readonly %0) local_unnamed_addr #0 {
  %2 = getelementptr i8, ptr %0, i64 16
  %.val = load ptr, ptr %2, align 8
  %3 = load ptr, ptr @zend_ce_exception, align 8
  %4 = icmp eq ptr %3, %.val
  br i1 %4, label %i_get_exception_base.exit, label %5

5:                                                ; preds = %1
  %6 = tail call zeroext i1 @instanceof_function_slow(ptr noundef %.val, ptr noundef %3) #15
  %zend_ce_exception.val.i = load ptr, ptr @zend_ce_exception, align 8
  %zend_ce_error.val.i = load ptr, ptr @zend_ce_error, align 8
  %.pre.i = select i1 %6, ptr %zend_ce_exception.val.i, ptr %zend_ce_error.val.i
  br label %i_get_exception_base.exit

i_get_exception_base.exit:                        ; preds = %1, %5
  %7 = phi ptr [ %.val, %1 ], [ %.pre.i, %5 ]
  ret ptr %7
}